target datalayout = "e-m:e-p270:32:32-p271:32:32-p272:64:64-i64:64-i128:128-f80:128-n8:16:32:64-S128"
target triple = "x86_64-pc-linux-gnu"

%union.pthread_mutex_t = type { %struct.__pthread_mutex_s }
%struct.__pthread_mutex_s = type { i32, i32, i32, i32, i32, i16, i16, %struct.__pthread_internal_list }
%struct.__pthread_internal_list = type { ptr, ptr }
%union.pthread_cond_t = type { %struct.__pthread_cond_s }
%struct.__pthread_cond_s = type { %union.__atomic_wide_counter, %union.__atomic_wide_counter, [2 x i32], [2 x i32], i32, i32, [2 x i32] }
%union.__atomic_wide_counter = type { i64 }

@term_lock = internal global %union.pthread_mutex_t zeroinitializer, align 8
@.str = private unnamed_addr constant [29 x i8] c"%s: pthread_mutex_lock(): %m\00", align 1
@__func__.stop_builtin_agent = private unnamed_addr constant [19 x i8] c"stop_builtin_agent\00", align 1
@stop_builtin = internal global i8 0, align 1
@term_cond = internal global %union.pthread_cond_t zeroinitializer, align 8
@.str.1 = private unnamed_addr constant [36 x i8] c"%s:%d %s: pthread_cond_signal(): %m\00", align 1
@.str.2 = private unnamed_addr constant [10 x i8] c"builtin.c\00", align 1
@.str.3 = private unnamed_addr constant [31 x i8] c"%s: pthread_mutex_unlock(): %m\00", align 1

; Function Attrs: nounwind uwtable
define dso_local void @stop_builtin_agent() #0 {
  %1 = alloca i32, align 4
  %2 = alloca i32, align 4
  %3 = alloca i32, align 4
  br label %4

4:                                                ; preds = %0
  call void @llvm.lifetime.start.p0(i64 4, ptr %1) #9
  %5 = call i32 @pthread_mutex_lock(ptr noundef @term_lock) #9
  store i32 %5, ptr %1, align 4
  %6 = load i32, ptr %1, align 4
  %7 = icmp ne i32 %6, 0
  br i1 %7, label %8, label %11

8:                                                ; preds = %4
  %9 = load i32, ptr %1, align 4
  %10 = call ptr @__errno_location() #10
  store i32 %9, ptr %10, align 4
  call void (ptr, ...) @fatal_abort(ptr noundef @.str, ptr noundef @__func__.stop_builtin_agent) #11
  unreachable

11:                                               ; preds = %4
  call void @llvm.lifetime.end.p0(i64 4, ptr %1) #9
  br label %12

12:                                               ; preds = %11
  store i8 1, ptr @stop_builtin, align 1
  br label %13

13:                                               ; preds = %12
  call void @llvm.lifetime.start.p0(i64 4, ptr %2) #9
  %14 = call i32 @pthread_cond_signal(ptr noundef @term_cond) #9
  store i32 %14, ptr %2, align 4
  %15 = load i32, ptr %2, align 4
  %16 = icmp ne i32 %15, 0
  br i1 %16, label %17, label %21

17:                                               ; preds = %13
  %18 = load i32, ptr %2, align 4
  %19 = call ptr @__errno_location() #10
  store i32 %18, ptr %19, align 4
  %20 = call i32 (ptr, ...) @error(ptr noundef @.str.1, ptr noundef @.str.2, i32 noundef 93, ptr noundef @__func__.stop_builtin_agent)
  br label %21

21:                                               ; preds = %17, %13
  call void @llvm.lifetime.end.p0(i64 4, ptr %2) #9
  br label %22

22:                                               ; preds = %21
  br label %23

23:                                               ; preds = %22
  call void @llvm.lifetime.start.p0(i64 4, ptr %3) #9
  %24 = call i32 @pthread_mutex_unlock(ptr noundef @term_lock) #9
  store i32 %24, ptr %3, align 4
  %25 = load i32, ptr %3, align 4
  %26 = icmp ne i32 %25, 0
  br i1 %26, label %27, label %30

27:                                               ; preds = %23
  %28 = load i32, ptr %3, align 4
  %29 = call ptr @__errno_location() #10
  store i32 %28, ptr %29, align 4
  call void (ptr, ...) @fatal_abort(ptr noundef @.str.3, ptr noundef @__func__.stop_builtin_agent) #11
  unreachable

30:                                               ; preds = %23
  call void @llvm.lifetime.end.p0(i64 4, ptr %3) #9
  br label %31

31:                                               ; preds = %30
  ret void
}