; Function Attrs: nounwind uwtable
define dso_local void @stop_builtin_agent() local_unnamed_addr #0 {
  %1 = tail call i32 @pthread_mutex_lock(ptr noundef nonnull @term_lock) #11
  %.not = icmp eq i32 %1, 0
  br i1 %.not, label %4, label %2

2:                                                ; preds = %0
  %3 = tail call ptr @__errno_location() #12
  store i32 %1, ptr %3, align 4
  tail call void (ptr, ...) @fatal_abort(ptr noundef nonnull @.str, ptr noundef nonnull @__func__.stop_builtin_agent) #13
  unreachable

4:                                                ; preds = %0
  store i1 true, ptr @stop_builtin, align 1
  %5 = tail call i32 @pthread_cond_signal(ptr noundef nonnull @term_cond) #11
  %.not8 = icmp eq i32 %5, 0
  br i1 %.not8, label %9, label %6

6:                                                ; preds = %4
  %7 = tail call ptr @__errno_location() #12
  store i32 %5, ptr %7, align 4
  %8 = tail call i32 (ptr, ...) @error(ptr noundef nonnull @.str.1, ptr noundef nonnull @.str.2, i32 noundef 93, ptr noundef nonnull @__func__.stop_builtin_agent) #11
  br label %9

9:                                                ; preds = %6, %4
  %10 = tail call i32 @pthread_mutex_unlock(ptr noundef nonnull @term_lock) #11
  %.not9 = icmp eq i32 %10, 0
  br i1 %.not9, label %13, label %11

11:                                               ; preds = %9
  %12 = tail call ptr @__errno_location() #12
  store i32 %10, ptr %12, align 4
  tail call void (ptr, ...) @fatal_abort(ptr noundef nonnull @.str.3, ptr noundef nonnull @__func__.stop_builtin_agent) #13
  unreachable

13:                                               ; preds = %9
  ret void
}